target datalayout = "e-m:e-p270:32:32-p271:32:32-p272:64:64-i64:64-i128:128-f80:128-n8:16:32:64-S128"
target triple = "x86_64-pc-linux-gnu"

%struct.iovec = type { ptr, i64 }

@PyExc_OSError = external global ptr, align 8

; Function Attrs: nounwind uwtable
define internal i64 @read_memory(i32 noundef %0, i64 noundef %1, i64 noundef %2, ptr noundef %3) #0 {
  %5 = alloca i64, align 8
  %6 = alloca i32, align 4
  %7 = alloca i64, align 8
  %8 = alloca i64, align 8
  %9 = alloca ptr, align 8
  %10 = alloca i64, align 8
  %11 = alloca [1 x %struct.iovec], align 16
  %12 = alloca [1 x %struct.iovec], align 16
  %13 = alloca i64, align 8
  %14 = alloca i64, align 8
  %15 = alloca i32, align 4
  store i32 %0, ptr %6, align 4, !tbaa !8
  store i64 %1, ptr %7, align 8, !tbaa !11
  store i64 %2, ptr %8, align 8, !tbaa !11
  store ptr %3, ptr %9, align 8, !tbaa !51
  call void @llvm.lifetime.start.p0(i64 8, ptr %10) #7
  store i64 0, ptr %10, align 8, !tbaa !11
  call void @llvm.lifetime.start.p0(i64 16, ptr %11) #7
  call void @llvm.lifetime.start.p0(i64 16, ptr %12) #7
  call void @llvm.lifetime.start.p0(i64 8, ptr %13) #7
  store i64 0, ptr %13, align 8, !tbaa !11
  call void @llvm.lifetime.start.p0(i64 8, ptr %14) #7
  store i64 0, ptr %14, align 8, !tbaa !11
  br label %16

16:                                               ; preds = %51, %4
  %17 = load ptr, ptr %9, align 8, !tbaa !51
  %18 = load i64, ptr %13, align 8, !tbaa !11
  %19 = getelementptr i8, ptr %17, i64 %18
  %20 = getelementptr [1 x %struct.iovec], ptr %11, i64 0, i64 0
  %21 = getelementptr inbounds nuw %struct.iovec, ptr %20, i32 0, i32 0
  store ptr %19, ptr %21, align 16, !tbaa !75
  %22 = load i64, ptr %8, align 8, !tbaa !11
  %23 = load i64, ptr %13, align 8, !tbaa !11
  %24 = sub i64 %22, %23
  %25 = getelementptr [1 x %struct.iovec], ptr %11, i64 0, i64 0
  %26 = getelementptr inbounds nuw %struct.iovec, ptr %25, i32 0, i32 1
  store i64 %24, ptr %26, align 8, !tbaa !77
  %27 = load i64, ptr %7, align 8, !tbaa !11
  %28 = load i64, ptr %13, align 8, !tbaa !11
  %29 = add i64 %27, %28
  %30 = inttoptr i64 %29 to ptr
  %31 = getelementptr [1 x %struct.iovec], ptr %12, i64 0, i64 0
  %32 = getelementptr inbounds nuw %struct.iovec, ptr %31, i32 0, i32 0
  store ptr %30, ptr %32, align 16, !tbaa !75
  %33 = load i64, ptr %8, align 8, !tbaa !11
  %34 = load i64, ptr %13, align 8, !tbaa !11
  %35 = sub i64 %33, %34
  %36 = getelementptr [1 x %struct.iovec], ptr %12, i64 0, i64 0
  %37 = getelementptr inbounds nuw %struct.iovec, ptr %36, i32 0, i32 1
  store i64 %35, ptr %37, align 8, !tbaa !77
  %38 = load i32, ptr %6, align 4, !tbaa !8
  %39 = getelementptr inbounds [1 x %struct.iovec], ptr %11, i64 0, i64 0
  %40 = getelementptr inbounds [1 x %struct.iovec], ptr %12, i64 0, i64 0
  %41 = call i64 @process_vm_readv(i32 noundef %38, ptr noundef %39, i64 noundef 1, ptr noundef %40, i64 noundef 1, i64 noundef 0) #7
  store i64 %41, ptr %14, align 8, !tbaa !11
  %42 = load i64, ptr %14, align 8, !tbaa !11
  %43 = icmp slt i64 %42, 0
  br i1 %43, label %44, label %47

44:                                               ; preds = %16
  %45 = load ptr, ptr @PyExc_OSError, align 8, !tbaa !3
  %46 = call ptr @PyErr_SetFromErrno(ptr noundef %45)
  store i64 -1, ptr %5, align 8
  store i32 1, ptr %15, align 4
  br label %60

47:                                               ; preds = %16
  %48 = load i64, ptr %14, align 8, !tbaa !11
  %49 = load i64, ptr %13, align 8, !tbaa !11
  %50 = add i64 %49, %48
  store i64 %50, ptr %13, align 8, !tbaa !11
  br label %51

51:                                               ; preds = %47
  %52 = load i64, ptr %14, align 8, !tbaa !11
  %53 = getelementptr [1 x %struct.iovec], ptr %11, i64 0, i64 0
  %54 = getelementptr inbounds nuw %struct.iovec, ptr %53, i32 0, i32 1
  %55 = load i64, ptr %54, align 8, !tbaa !77
  %56 = icmp ne i64 %52, %55
  br i1 %56, label %16, label %57, !llvm.loop !78

57:                                               ; preds = %51
  %58 = load i64, ptr %13, align 8, !tbaa !11
  store i64 %58, ptr %10, align 8, !tbaa !11
  %59 = load i64, ptr %10, align 8, !tbaa !11
  store i64 %59, ptr %5, align 8
  store i32 1, ptr %15, align 4
  br label %60

60:                                               ; preds = %57, %44
  call void @llvm.lifetime.end.p0(i64 8, ptr %14) #7
  call void @llvm.lifetime.end.p0(i64 8, ptr %13) #7
  call void @llvm.lifetime.end.p0(i64 16, ptr %12) #7
  call void @llvm.lifetime.end.p0(i64 16, ptr %11) #7
  call void @llvm.lifetime.end.p0(i64 8, ptr %10) #7
  %61 = load i64, ptr %5, align 8
  ret i64 %61
}

; Function Attrs: inlinehint nounwind uwtable
define internal i32 @read_ssize_t(i32 noundef %0, i64 noundef %1, ptr noundef %2) #6 {
  %4 = alloca i32, align 4
  %5 = alloca i32, align 4
  %6 = alloca i64, align 8
  %7 = alloca ptr, align 8
  %8 = alloca i32, align 4
  %9 = alloca i32, align 4
  store i32 %0, ptr %5, align 4, !tbaa !8
  store i64 %1, ptr %6, align 8, !tbaa !11
  store ptr %2, ptr %7, align 8, !tbaa !39
  call void @llvm.lifetime.start.p0(i64 4, ptr %8) #7
  %10 = load i32, ptr %5, align 4, !tbaa !8
  %11 = load i64, ptr %6, align 8, !tbaa !11
  %12 = load ptr, ptr %7, align 8, !tbaa !39
  %13 = call i64 @read_memory(i32 noundef %10, i64 noundef %11, i64 noundef 8, ptr noundef %12)
  %14 = trunc i64 %13 to i32
  store i32 %14, ptr %8, align 4, !tbaa !8
  %15 = load i32, ptr %8, align 4, !tbaa !8
  %16 = icmp slt i32 %15, 0
  br i1 %16, label %17, label %18

17:                                               ; preds = %3
  store i32 -1, ptr %4, align 4
  store i32 1, ptr %9, align 4
  br label %19

18:                                               ; preds = %3
  store i32 0, ptr %4, align 4
  store i32 1, ptr %9, align 4
  br label %19

19:                                               ; preds = %18, %17
  call void @llvm.lifetime.end.p0(i64 4, ptr %8) #7
  %20 = load i32, ptr %4, align 4
  ret i32 %20
}